target datalayout = "e-m:e-p270:32:32-p271:32:32-p272:64:64-i64:64-i128:128-f80:128-n8:16:32:64-S128"
target triple = "x86_64-pc-linux-gnu"

%struct.carc = type { i16, i32 }

; Function Attrs: nounwind uwtable
define internal i32 @carc_cmp(ptr noundef %0, ptr noundef %1) #0 {
  %3 = alloca i32, align 4
  %4 = alloca ptr, align 8
  %5 = alloca ptr, align 8
  %6 = alloca ptr, align 8
  %7 = alloca ptr, align 8
  %8 = alloca i32, align 4
  store ptr %0, ptr %4, align 8
  store ptr %1, ptr %5, align 8
  call void @llvm.lifetime.start.p0(i64 8, ptr %6) #12
  %9 = load ptr, ptr %4, align 8
  store ptr %9, ptr %6, align 8
  call void @llvm.lifetime.start.p0(i64 8, ptr %7) #12
  %10 = load ptr, ptr %5, align 8
  store ptr %10, ptr %7, align 8
  %11 = load ptr, ptr %6, align 8
  %12 = getelementptr inbounds nuw %struct.carc, ptr %11, i32 0, i32 0
  %13 = load i16, ptr %12, align 4
  %14 = sext i16 %13 to i32
  %15 = load ptr, ptr %7, align 8
  %16 = getelementptr inbounds nuw %struct.carc, ptr %15, i32 0, i32 0
  %17 = load i16, ptr %16, align 4
  %18 = sext i16 %17 to i32
  %19 = icmp slt i32 %14, %18
  br i1 %19, label %20, label %21

20:                                               ; preds = %2
  store i32 -1, ptr %3, align 4
  store i32 1, ptr %8, align 4
  br label %51

21:                                               ; preds = %2
  %22 = load ptr, ptr %6, align 8
  %23 = getelementptr inbounds nuw %struct.carc, ptr %22, i32 0, i32 0
  %24 = load i16, ptr %23, align 4
  %25 = sext i16 %24 to i32
  %26 = load ptr, ptr %7, align 8
  %27 = getelementptr inbounds nuw %struct.carc, ptr %26, i32 0, i32 0
  %28 = load i16, ptr %27, align 4
  %29 = sext i16 %28 to i32
  %30 = icmp sgt i32 %25, %29
  br i1 %30, label %31, label %32

31:                                               ; preds = %21
  store i32 1, ptr %3, align 4
  store i32 1, ptr %8, align 4
  br label %51

32:                                               ; preds = %21
  %33 = load ptr, ptr %6, align 8
  %34 = getelementptr inbounds nuw %struct.carc, ptr %33, i32 0, i32 1
  %35 = load i32, ptr %34, align 4
  %36 = load ptr, ptr %7, align 8
  %37 = getelementptr inbounds nuw %struct.carc, ptr %36, i32 0, i32 1
  %38 = load i32, ptr %37, align 4
  %39 = icmp slt i32 %35, %38
  br i1 %39, label %40, label %41

40:                                               ; preds = %32
  store i32 -1, ptr %3, align 4
  store i32 1, ptr %8, align 4
  br label %51

41:                                               ; preds = %32
  %42 = load ptr, ptr %6, align 8
  %43 = getelementptr inbounds nuw %struct.carc, ptr %42, i32 0, i32 1
  %44 = load i32, ptr %43, align 4
  %45 = load ptr, ptr %7, align 8
  %46 = getelementptr inbounds nuw %struct.carc, ptr %45, i32 0, i32 1
  %47 = load i32, ptr %46, align 4
  %48 = icmp sgt i32 %44, %47
  br i1 %48, label %49, label %50

49:                                               ; preds = %41
  store i32 1, ptr %3, align 4
  store i32 1, ptr %8, align 4
  br label %51

50:                                               ; preds = %41
  store i32 0, ptr %3, align 4
  store i32 1, ptr %8, align 4
  br label %51

51:                                               ; preds = %50, %49, %40, %31, %20
  call void @llvm.lifetime.end.p0(i64 8, ptr %7) #12
  call void @llvm.lifetime.end.p0(i64 8, ptr %6) #12
  %52 = load i32, ptr %3, align 4
  ret i32 %52
}